target datalayout = "e-m:e-p270:32:32-p271:32:32-p272:64:64-i64:64-i128:128-f80:128-n8:16:32:64-S128"
target triple = "x86_64-unknown-linux-gnu"

%"class.facebook::velox::common::hll::SparseHll" = type <{ %"class.std::vector", i32, [4 x i8] }>
%"class.std::vector" = type { %"struct.std::_Vector_base" }
%"struct.std::_Vector_base" = type { %"struct.std::_Vector_base<unsigned int, facebook::velox::StlAllocator<unsigned int>>::_Vector_impl" }
%"struct.std::_Vector_base<unsigned int, facebook::velox::StlAllocator<unsigned int>>::_Vector_impl" = type { %"struct.facebook::velox::StlAllocator", %"struct.std::_Vector_base<unsigned int, facebook::velox::StlAllocator<unsigned int>>::_Vector_impl_data" }
%"struct.facebook::velox::StlAllocator" = type { ptr }
%"struct.std::_Vector_base<unsigned int, facebook::velox::StlAllocator<unsigned int>>::_Vector_impl_data" = type { ptr, ptr, ptr }

; Function Attrs: mustprogress nounwind uwtable
define internal noundef i32 @_ZN8facebook5velox6common3hll12_GLOBAL__N_111decodeIndexEj(i32 noundef %entry1) #1 {
entry:
  %entry.addr = alloca i32, align 4
  store i32 %entry1, ptr %entry.addr, align 4
  %0 = load i32, ptr %entry.addr, align 4
  %shr = lshr i32 %0, 6
  ret i32 %shr
}

; Function Attrs: mustprogress nounwind uwtable
define linkonce_odr noundef nonnull align 4 dereferenceable(4) ptr @_ZNKSt6vectorIjN8facebook5velox12StlAllocatorIjEEEixEm(ptr noundef nonnull align 8 dereferenceable(32) %this, i64 noundef %__n) #1 comdat align 2 {
entry:
  %this.addr = alloca ptr, align 8
  %__n.addr = alloca i64, align 8
  store ptr %this, ptr %this.addr, align 8
  store i64 %__n, ptr %__n.addr, align 8
  %this1 = load ptr, ptr %this.addr, align 8
  %_M_impl = getelementptr inbounds %"struct.std::_Vector_base", ptr %this1, i32 0, i32 0
  %add.ptr = getelementptr inbounds i8, ptr %_M_impl, i64 8
  %_M_start = getelementptr inbounds %"struct.std::_Vector_base<unsigned int, facebook::velox::StlAllocator<unsigned int>>::_Vector_impl_data", ptr %add.ptr, i32 0, i32 0
  %0 = load ptr, ptr %_M_start, align 8
  %1 = load i64, ptr %__n.addr, align 8
  %add.ptr2 = getelementptr inbounds i32, ptr %0, i64 %1
  ret ptr %add.ptr2
}

; Function Attrs: mustprogress nounwind uwtable
define linkonce_odr noundef i64 @_ZNKSt6vectorIjN8facebook5velox12StlAllocatorIjEEE4sizeEv(ptr noundef nonnull align 8 dereferenceable(32) %this) #1 comdat align 2 {
entry:
  %this.addr = alloca ptr, align 8
  store ptr %this, ptr %this.addr, align 8
  %this1 = load ptr, ptr %this.addr, align 8
  %_M_impl = getelementptr inbounds %"struct.std::_Vector_base", ptr %this1, i32 0, i32 0
  %add.ptr = getelementptr inbounds i8, ptr %_M_impl, i64 8
  %_M_finish = getelementptr inbounds %"struct.std::_Vector_base<unsigned int, facebook::velox::StlAllocator<unsigned int>>::_Vector_impl_data", ptr %add.ptr, i32 0, i32 1
  %0 = load ptr, ptr %_M_finish, align 8
  %_M_impl2 = getelementptr inbounds %"struct.std::_Vector_base", ptr %this1, i32 0, i32 0
  %add.ptr3 = getelementptr inbounds i8, ptr %_M_impl2, i64 8
  %_M_start = getelementptr inbounds %"struct.std::_Vector_base<unsigned int, facebook::velox::StlAllocator<unsigned int>>::_Vector_impl_data", ptr %add.ptr3, i32 0, i32 0
  %1 = load ptr, ptr %_M_start, align 8
  %sub.ptr.lhs.cast = ptrtoint ptr %0 to i64
  %sub.ptr.rhs.cast = ptrtoint ptr %1 to i64
  %sub.ptr.sub = sub i64 %sub.ptr.lhs.cast, %sub.ptr.rhs.cast
  %sub.ptr.div = sdiv exact i64 %sub.ptr.sub, 4
  ret i64 %sub.ptr.div
}

; Function Attrs: mustprogress uwtable
define void @_ZNK8facebook5velox6common3hll9SparseHll6verifyEv(ptr noundef nonnull align 8 dereferenceable(36) %this) #0 align 2 {
entry:
  %this.addr = alloca ptr, align 8
  %prevIndex = alloca i32, align 4
  %i = alloca i32, align 4
  %index = alloca i32, align 4
  store ptr %this, ptr %this.addr, align 8
  %this1 = load ptr, ptr %this.addr, align 8
  %entries_ = getelementptr inbounds %"class.facebook::velox::common::hll::SparseHll", ptr %this1, i32 0, i32 0
  %call = call noundef i64 @_ZNKSt6vectorIjN8facebook5velox12StlAllocatorIjEEE4sizeEv(ptr noundef nonnull align 8 dereferenceable(32) %entries_) #11
  %cmp = icmp ule i64 %call, 1
  br i1 %cmp, label %if.then, label %if.end

if.then:                                          ; preds = %entry
  br label %for.end

if.end:                                           ; preds = %entry
  %entries_2 = getelementptr inbounds %"class.facebook::velox::common::hll::SparseHll", ptr %this1, i32 0, i32 0
  %call3 = call noundef nonnull align 4 dereferenceable(4) ptr @_ZNKSt6vectorIjN8facebook5velox12StlAllocatorIjEEEixEm(ptr noundef nonnull align 8 dereferenceable(32) %entries_2, i64 noundef 0) #11
  %0 = load i32, ptr %call3, align 4
  %call4 = call noundef i32 @_ZN8facebook5velox6common3hll12_GLOBAL__N_111decodeIndexEj(i32 noundef %0)
  store i32 %call4, ptr %prevIndex, align 4
  store i32 1, ptr %i, align 4
  br label %for.cond

for.cond:                                         ; preds = %for.inc, %if.end
  %1 = load i32, ptr %i, align 4
  %conv = sext i32 %1 to i64
  %entries_5 = getelementptr inbounds %"class.facebook::velox::common::hll::SparseHll", ptr %this1, i32 0, i32 0
  %call6 = call noundef i64 @_ZNKSt6vectorIjN8facebook5velox12StlAllocatorIjEEE4sizeEv(ptr noundef nonnull align 8 dereferenceable(32) %entries_5) #11
  %cmp7 = icmp ult i64 %conv, %call6
  br i1 %cmp7, label %for.body, label %for.end

for.body:                                         ; preds = %for.cond
  %entries_8 = getelementptr inbounds %"class.facebook::velox::common::hll::SparseHll", ptr %this1, i32 0, i32 0
  %2 = load i32, ptr %i, align 4
  %conv9 = sext i32 %2 to i64
  %call10 = call noundef nonnull align 4 dereferenceable(4) ptr @_ZNKSt6vectorIjN8facebook5velox12StlAllocatorIjEEEixEm(ptr noundef nonnull align 8 dereferenceable(32) %entries_8, i64 noundef %conv9) #11
  %3 = load i32, ptr %call10, align 4
  %call11 = call noundef i32 @_ZN8facebook5velox6common3hll12_GLOBAL__N_111decodeIndexEj(i32 noundef %3)
  store i32 %call11, ptr %index, align 4
  %4 = load i32, ptr %prevIndex, align 4
  %5 = load i32, ptr %index, align 4
  %cmp12 = icmp ult i32 %4, %5
  %lnot = xor i1 %cmp12, true
  br i1 %lnot, label %if.then14, label %if.end15

if.then14:                                        ; preds = %for.body
  call void @llvm.trap()
  br label %if.end15

if.end15:                                         ; preds = %if.then14, %for.body
  %6 = load i32, ptr %index, align 4
  store i32 %6, ptr %prevIndex, align 4
  br label %for.inc

for.inc:                                          ; preds = %if.end15
  %7 = load i32, ptr %i, align 4
  %inc = add nsw i32 %7, 1
  store i32 %inc, ptr %i, align 4
  br label %for.cond, !llvm.loop !11

for.end:                                          ; preds = %for.cond, %if.then
  ret void
}