; Function Attrs: mustprogress nounwind memory(read, inaccessiblemem: write) uwtable
define void @_ZNK8facebook5velox6common3hll9SparseHll6verifyEv(ptr noundef nonnull readonly align 8 captures(none) dereferenceable(36) %this) local_unnamed_addr #10 align 2 {
entry:
  %add.ptr.i = getelementptr inbounds nuw i8, ptr %this, i64 8
  %_M_finish.i = getelementptr inbounds nuw i8, ptr %this, i64 16
  %0 = load ptr, ptr %_M_finish.i, align 8
  %1 = load ptr, ptr %add.ptr.i, align 8
  %sub.ptr.lhs.cast.i = ptrtoint ptr %0 to i64
  %sub.ptr.rhs.cast.i = ptrtoint ptr %1 to i64
  %sub.ptr.sub.i = sub i64 %sub.ptr.lhs.cast.i, %sub.ptr.rhs.cast.i
  %sub.ptr.div.i = ashr exact i64 %sub.ptr.sub.i, 2
  %cmp = icmp ult i64 %sub.ptr.div.i, 2
  br i1 %cmp, label %for.end, label %if.end

if.end:                                           ; preds = %entry
  %2 = load i32, ptr %1, align 4
  %shr.i = lshr i32 %2, 6
  br label %for.body

for.cond:                                         ; preds = %for.body
  %indvars.iv.next = add nuw i64 %indvars.iv, 1
  %exitcond.not = icmp eq i64 %indvars.iv.next, %sub.ptr.div.i
  br i1 %exitcond.not, label %for.end, label %for.body, !llvm.loop !11

for.body:                                         ; preds = %if.end, %for.cond
  %indvars.iv = phi i64 [ 1, %if.end ], [ %indvars.iv.next, %for.cond ]
  %prevIndex.014 = phi i32 [ %shr.i, %if.end ], [ %shr.i12, %for.cond ]
  %add.ptr2.i = getelementptr inbounds nuw i32, ptr %1, i64 %indvars.iv
  %3 = load i32, ptr %add.ptr2.i, align 4
  %shr.i12 = lshr i32 %3, 6
  %cmp12.not = icmp samesign ult i32 %prevIndex.014, %shr.i12
  br i1 %cmp12.not, label %for.cond, label %if.then14

if.then14:                                        ; preds = %for.body
  tail call void @llvm.trap()
  unreachable

for.end:                                          ; preds = %for.cond, %entry
  ret void
}